target datalayout = "e-m:e-p270:32:32-p271:32:32-p272:64:64-i64:64-i128:128-f80:128-n8:16:32:64-S128"
target triple = "x86_64-pc-linux-gnu"

%struct.Aig_Obj_t_ = type { %union.anon, ptr, ptr, i64, i32, i32, %union.anon.0 }
%union.anon = type { ptr }
%union.anon.0 = type { ptr }
%struct.Aig_Man_t_ = type { ptr, ptr, ptr, ptr, ptr, ptr, ptr, %struct.Aig_Obj_t_, i32, i32, i32, i32, i32, i32, [7 x i32], i32, ptr, i32, ptr, i32, ptr, i32, i32, i32, ptr, i32, i32, i32, i32, i32, ptr, ptr, i32, ptr, ptr, i32, ptr, ptr, i32, i32, i32, ptr, ptr, ptr, ptr, ptr, ptr, ptr, ptr, ptr, ptr, ptr, ptr, ptr, ptr, i32, ptr, ptr, ptr, ptr, i32, i64, i64, i64, ptr, ptr }
%struct.Vec_Ptr_t_ = type { i32, i32, ptr }
%struct.Vec_Int_t_ = type { i32, i32, ptr }
%struct.Llb_Mnx_t_ = type { ptr, ptr, ptr, ptr, ptr, ptr, ptr, ptr, ptr, ptr, ptr, i64, i64, i64, i64, i64 }
%struct.Gia_ParLlb_t_ = type { i32, i32, i32, i32, i32, i32, i32, i32, i32, i32, i32, i32, i32, i32, i32, i32, i32, i32, i32, i32, i32, i32, i32, i64, i32 }
%struct.timespec = type { i64, i64 }

@.str.32 = private unnamed_addr constant [8 x i8] c"reached\00", align 1

; Function Attrs: inlinehint nounwind uwtable
define internal i32 @Vec_IntEntry(ptr noundef %0, i32 noundef %1) #3 {
  %3 = alloca ptr, align 8
  %4 = alloca i32, align 4
  store ptr %0, ptr %3, align 8, !tbaa !10
  store i32 %1, ptr %4, align 4, !tbaa !13
  %5 = load ptr, ptr %3, align 8, !tbaa !10
  %6 = getelementptr inbounds nuw %struct.Vec_Int_t_, ptr %5, i32 0, i32 2
  %7 = load ptr, ptr %6, align 8, !tbaa !63
  %8 = load i32, ptr %4, align 4, !tbaa !13
  %9 = sext i32 %8 to i64
  %10 = getelementptr inbounds i32, ptr %7, i64 %9
  %11 = load i32, ptr %10, align 4, !tbaa !13
  ret i32 %11
}

; Function Attrs: inlinehint nounwind uwtable
define internal i32 @Aig_ObjId(ptr noundef %0) #3 {
  %2 = alloca ptr, align 8
  store ptr %0, ptr %2, align 8, !tbaa !27
  %3 = load ptr, ptr %2, align 8, !tbaa !27
  %4 = getelementptr inbounds nuw %struct.Aig_Obj_t_, ptr %3, i32 0, i32 5
  %5 = load i32, ptr %4, align 4, !tbaa !64
  ret i32 %5
}

; Function Attrs: inlinehint nounwind uwtable
define internal ptr @Vec_IntAlloc(i32 noundef %0) #3 {
  %2 = alloca i32, align 4
  %3 = alloca ptr, align 8
  store i32 %0, ptr %2, align 4, !tbaa !13
  call void @llvm.lifetime.start.p0(i64 8, ptr %3) #11
  %4 = call noalias ptr @malloc(i64 noundef 16) #12
  store ptr %4, ptr %3, align 8, !tbaa !10
  %5 = load i32, ptr %2, align 4, !tbaa !13
  %6 = icmp sgt i32 %5, 0
  br i1 %6, label %7, label %11

7:                                                ; preds = %1
  %8 = load i32, ptr %2, align 4, !tbaa !13
  %9 = icmp slt i32 %8, 16
  br i1 %9, label %10, label %11

10:                                               ; preds = %7
  store i32 16, ptr %2, align 4, !tbaa !13
  br label %11

11:                                               ; preds = %10, %7, %1
  %12 = load ptr, ptr %3, align 8, !tbaa !10
  %13 = getelementptr inbounds nuw %struct.Vec_Int_t_, ptr %12, i32 0, i32 1
  store i32 0, ptr %13, align 4, !tbaa !61
  %14 = load i32, ptr %2, align 4, !tbaa !13
  %15 = load ptr, ptr %3, align 8, !tbaa !10
  %16 = getelementptr inbounds nuw %struct.Vec_Int_t_, ptr %15, i32 0, i32 0
  store i32 %14, ptr %16, align 8, !tbaa !71
  %17 = load ptr, ptr %3, align 8, !tbaa !10
  %18 = getelementptr inbounds nuw %struct.Vec_Int_t_, ptr %17, i32 0, i32 0
  %19 = load i32, ptr %18, align 8, !tbaa !71
  %20 = icmp ne i32 %19, 0
  br i1 %20, label %21, label %28

21:                                               ; preds = %11
  %22 = load ptr, ptr %3, align 8, !tbaa !10
  %23 = getelementptr inbounds nuw %struct.Vec_Int_t_, ptr %22, i32 0, i32 0
  %24 = load i32, ptr %23, align 8, !tbaa !71
  %25 = sext i32 %24 to i64
  %26 = mul i64 4, %25
  %27 = call noalias ptr @malloc(i64 noundef %26) #12
  br label %29

28:                                               ; preds = %11
  br label %29

29:                                               ; preds = %28, %21
  %30 = phi ptr [ %27, %21 ], [ null, %28 ]
  %31 = load ptr, ptr %3, align 8, !tbaa !10
  %32 = getelementptr inbounds nuw %struct.Vec_Int_t_, ptr %31, i32 0, i32 2
  store ptr %30, ptr %32, align 8, !tbaa !63
  %33 = load ptr, ptr %3, align 8, !tbaa !10
  call void @llvm.lifetime.end.p0(i64 8, ptr %3) #11
  ret ptr %33
}

; Function Attrs: inlinehint nounwind uwtable
define internal void @Vec_IntFree(ptr noundef %0) #3 {
  %2 = alloca ptr, align 8
  store ptr %0, ptr %2, align 8, !tbaa !10
  %3 = load ptr, ptr %2, align 8, !tbaa !10
  %4 = getelementptr inbounds nuw %struct.Vec_Int_t_, ptr %3, i32 0, i32 2
  %5 = load ptr, ptr %4, align 8, !tbaa !63
  %6 = icmp ne ptr %5, null
  br i1 %6, label %7, label %13

7:                                                ; preds = %1
  %8 = load ptr, ptr %2, align 8, !tbaa !10
  %9 = getelementptr inbounds nuw %struct.Vec_Int_t_, ptr %8, i32 0, i32 2
  %10 = load ptr, ptr %9, align 8, !tbaa !63
  call void @free(ptr noundef %10) #11
  %11 = load ptr, ptr %2, align 8, !tbaa !10
  %12 = getelementptr inbounds nuw %struct.Vec_Int_t_, ptr %11, i32 0, i32 2
  store ptr null, ptr %12, align 8, !tbaa !63
  br label %14

13:                                               ; preds = %1
  br label %14

14:                                               ; preds = %13, %7
  %15 = load ptr, ptr %2, align 8, !tbaa !10
  %16 = icmp ne ptr %15, null
  br i1 %16, label %17, label %19

17:                                               ; preds = %14
  %18 = load ptr, ptr %2, align 8, !tbaa !10
  call void @free(ptr noundef %18) #11
  store ptr null, ptr %2, align 8, !tbaa !10
  br label %20

19:                                               ; preds = %14
  br label %20

20:                                               ; preds = %19, %17
  ret void
}

; Function Attrs: inlinehint nounwind uwtable
define internal ptr @Vec_IntArray(ptr noundef %0) #3 {
  %2 = alloca ptr, align 8
  store ptr %0, ptr %2, align 8, !tbaa !10
  %3 = load ptr, ptr %2, align 8, !tbaa !10
  %4 = getelementptr inbounds nuw %struct.Vec_Int_t_, ptr %3, i32 0, i32 2
  %5 = load ptr, ptr %4, align 8, !tbaa !63
  ret ptr %5
}

; Function Attrs: inlinehint nounwind uwtable
define internal void @Vec_IntWriteEntry(ptr noundef %0, i32 noundef %1, i32 noundef %2) #3 {
  %4 = alloca ptr, align 8
  %5 = alloca i32, align 4
  %6 = alloca i32, align 4
  store ptr %0, ptr %4, align 8, !tbaa !10
  store i32 %1, ptr %5, align 4, !tbaa !13
  store i32 %2, ptr %6, align 4, !tbaa !13
  %7 = load i32, ptr %6, align 4, !tbaa !13
  %8 = load ptr, ptr %4, align 8, !tbaa !10
  %9 = getelementptr inbounds nuw %struct.Vec_Int_t_, ptr %8, i32 0, i32 2
  %10 = load ptr, ptr %9, align 8, !tbaa !63
  %11 = load i32, ptr %5, align 4, !tbaa !13
  %12 = sext i32 %11 to i64
  %13 = getelementptr inbounds i32, ptr %10, i64 %12
  store i32 %7, ptr %13, align 4, !tbaa !13
  ret void
}

; Function Attrs: inlinehint nounwind uwtable
define internal i32 @Llb_ObjBddVar(ptr noundef %0, ptr noundef %1) #3 {
  %3 = alloca ptr, align 8
  %4 = alloca ptr, align 8
  store ptr %0, ptr %3, align 8, !tbaa !10
  store ptr %1, ptr %4, align 8, !tbaa !27
  %5 = load ptr, ptr %3, align 8, !tbaa !10
  %6 = load ptr, ptr %4, align 8, !tbaa !27
  %7 = call i32 @Aig_ObjId(ptr noundef %6)
  %8 = call i32 @Vec_IntEntry(ptr noundef %5, i32 noundef %7)
  ret i32 %8
}

; Function Attrs: inlinehint nounwind uwtable
define internal ptr @Vec_PtrEntry(ptr noundef %0, i32 noundef %1) #3 {
  %3 = alloca ptr, align 8
  %4 = alloca i32, align 4
  store ptr %0, ptr %3, align 8, !tbaa !31
  store i32 %1, ptr %4, align 4, !tbaa !13
  %5 = load ptr, ptr %3, align 8, !tbaa !31
  %6 = getelementptr inbounds nuw %struct.Vec_Ptr_t_, ptr %5, i32 0, i32 2
  %7 = load ptr, ptr %6, align 8, !tbaa !42
  %8 = load i32, ptr %4, align 4, !tbaa !13
  %9 = sext i32 %8 to i64
  %10 = getelementptr inbounds ptr, ptr %7, i64 %9
  %11 = load ptr, ptr %10, align 8, !tbaa !43
  ret ptr %11
}

; Function Attrs: inlinehint nounwind uwtable
define internal i32 @Saig_ManPiNum(ptr noundef %0) #3 {
  %2 = alloca ptr, align 8
  store ptr %0, ptr %2, align 8, !tbaa !8
  %3 = load ptr, ptr %2, align 8, !tbaa !8
  %4 = getelementptr inbounds nuw %struct.Aig_Man_t_, ptr %3, i32 0, i32 9
  %5 = load i32, ptr %4, align 4, !tbaa !47
  ret i32 %5
}

; Function Attrs: inlinehint nounwind uwtable
define internal i32 @Saig_ManRegNum(ptr noundef %0) #3 {
  %2 = alloca ptr, align 8
  store ptr %0, ptr %2, align 8, !tbaa !8
  %3 = load ptr, ptr %2, align 8, !tbaa !8
  %4 = getelementptr inbounds nuw %struct.Aig_Man_t_, ptr %3, i32 0, i32 8
  %5 = load i32, ptr %4, align 8, !tbaa !57
  ret i32 %5
}

; Function Attrs: inlinehint nounwind uwtable
define internal ptr @Vec_IntStartFull(i32 noundef %0) #3 {
  %2 = alloca i32, align 4
  %3 = alloca ptr, align 8
  store i32 %0, ptr %2, align 4, !tbaa !13
  call void @llvm.lifetime.start.p0(i64 8, ptr %3) #11
  %4 = load i32, ptr %2, align 4, !tbaa !13
  %5 = call ptr @Vec_IntAlloc(i32 noundef %4)
  store ptr %5, ptr %3, align 8, !tbaa !10
  %6 = load i32, ptr %2, align 4, !tbaa !13
  %7 = load ptr, ptr %3, align 8, !tbaa !10
  %8 = getelementptr inbounds nuw %struct.Vec_Int_t_, ptr %7, i32 0, i32 1
  store i32 %6, ptr %8, align 4, !tbaa !61
  %9 = load ptr, ptr %3, align 8, !tbaa !10
  %10 = getelementptr inbounds nuw %struct.Vec_Int_t_, ptr %9, i32 0, i32 2
  %11 = load ptr, ptr %10, align 8, !tbaa !63
  %12 = icmp ne ptr %11, null
  br i1 %12, label %13, label %20

13:                                               ; preds = %1
  %14 = load ptr, ptr %3, align 8, !tbaa !10
  %15 = getelementptr inbounds nuw %struct.Vec_Int_t_, ptr %14, i32 0, i32 2
  %16 = load ptr, ptr %15, align 8, !tbaa !63
  %17 = load i32, ptr %2, align 4, !tbaa !13
  %18 = sext i32 %17 to i64
  %19 = mul i64 4, %18
  call void @llvm.memset.p0.i64(ptr align 4 %16, i8 -1, i64 %19, i1 false)
  br label %20

20:                                               ; preds = %13, %1
  %21 = load ptr, ptr %3, align 8, !tbaa !10
  call void @llvm.lifetime.end.p0(i64 8, ptr %3) #11
  ret ptr %21
}

; Function Attrs: inlinehint nounwind uwtable
define internal i64 @Abc_Clock() #3 {
  %1 = alloca i64, align 8
  %2 = alloca %struct.timespec, align 8
  %3 = alloca i32, align 4
  %4 = alloca i64, align 8
  call void @llvm.lifetime.start.p0(i64 16, ptr %2) #11
  %5 = call i32 @clock_gettime(i32 noundef 1, ptr noundef %2) #11
  %6 = icmp slt i32 %5, 0
  br i1 %6, label %7, label %8

7:                                                ; preds = %0
  store i64 -1, ptr %1, align 8
  store i32 1, ptr %3, align 4
  br label %19

8:                                                ; preds = %0
  call void @llvm.lifetime.start.p0(i64 8, ptr %4) #11
  %9 = getelementptr inbounds nuw %struct.timespec, ptr %2, i32 0, i32 0
  %10 = load i64, ptr %9, align 8, !tbaa !161
  %11 = mul nsw i64 %10, 1000000
  store i64 %11, ptr %4, align 8, !tbaa !93
  %12 = getelementptr inbounds nuw %struct.timespec, ptr %2, i32 0, i32 1
  %13 = load i64, ptr %12, align 8, !tbaa !163
  %14 = mul nsw i64 %13, 1000000
  %15 = sdiv i64 %14, 1000000000
  %16 = load i64, ptr %4, align 8, !tbaa !93
  %17 = add nsw i64 %16, %15
  store i64 %17, ptr %4, align 8, !tbaa !93
  %18 = load i64, ptr %4, align 8, !tbaa !93
  store i64 %18, ptr %1, align 8
  store i32 1, ptr %3, align 4
  call void @llvm.lifetime.end.p0(i64 8, ptr %4) #11
  br label %19

19:                                               ; preds = %8, %7
  call void @llvm.lifetime.end.p0(i64 16, ptr %2) #11
  %20 = load i64, ptr %1, align 8
  ret i64 %20
}

; Function Attrs: nounwind uwtable
define ptr @Llb_ReachableStates(ptr noundef %0) #0 {
  %2 = alloca ptr, align 8
  %3 = alloca ptr, align 8
  %4 = alloca ptr, align 8
  %5 = alloca %struct.Gia_ParLlb_t_, align 8
  %6 = alloca ptr, align 8
  %7 = alloca ptr, align 8
  %8 = alloca ptr, align 8
  %9 = alloca ptr, align 8
  %10 = alloca ptr, align 8
  %11 = alloca ptr, align 8
  %12 = alloca ptr, align 8
  %13 = alloca i32, align 4
  %14 = alloca i32, align 4
  %15 = alloca i64, align 8
  store ptr %0, ptr %2, align 8, !tbaa !8
  call void @llvm.lifetime.start.p0(i64 8, ptr %3) #11
  call void @llvm.lifetime.start.p0(i64 8, ptr %4) #11
  call void @llvm.lifetime.start.p0(i64 112, ptr %5) #11
  call void @llvm.lifetime.start.p0(i64 8, ptr %6) #11
  store ptr %5, ptr %6, align 8, !tbaa !143
  call void @llvm.lifetime.start.p0(i64 8, ptr %7) #11
  call void @llvm.lifetime.start.p0(i64 8, ptr %8) #11
  call void @llvm.lifetime.start.p0(i64 8, ptr %9) #11
  call void @llvm.lifetime.start.p0(i64 8, ptr %10) #11
  call void @llvm.lifetime.start.p0(i64 8, ptr %11) #11
  call void @llvm.lifetime.start.p0(i64 8, ptr %12) #11
  call void @llvm.lifetime.start.p0(i64 4, ptr %13) #11
  call void @llvm.lifetime.start.p0(i64 4, ptr %14) #11
  call void @llvm.lifetime.start.p0(i64 8, ptr %15) #11
  %16 = call i64 @Abc_Clock()
  store i64 %16, ptr %15, align 8, !tbaa !93
  %17 = load ptr, ptr %6, align 8, !tbaa !143
  call void @Llb_ManSetDefaultParams(ptr noundef %17)
  %18 = load ptr, ptr %6, align 8, !tbaa !143
  %19 = getelementptr inbounds nuw %struct.Gia_ParLlb_t_, ptr %18, i32 0, i32 20
  store i32 1, ptr %19, align 8, !tbaa !118
  %20 = load ptr, ptr %6, align 8, !tbaa !143
  %21 = getelementptr inbounds nuw %struct.Gia_ParLlb_t_, ptr %20, i32 0, i32 13
  store i32 0, ptr %21, align 4, !tbaa !119
  %22 = load ptr, ptr %6, align 8, !tbaa !143
  %23 = getelementptr inbounds nuw %struct.Gia_ParLlb_t_, ptr %22, i32 0, i32 10
  store i32 0, ptr %23, align 8, !tbaa !146
  %24 = load ptr, ptr %6, align 8, !tbaa !143
  %25 = getelementptr inbounds nuw %struct.Gia_ParLlb_t_, ptr %24, i32 0, i32 18
  store i32 1, ptr %25, align 8, !tbaa !122
  %26 = load ptr, ptr %6, align 8, !tbaa !143
  %27 = getelementptr inbounds nuw %struct.Gia_ParLlb_t_, ptr %26, i32 0, i32 0
  store i32 100, ptr %27, align 8, !tbaa !144
  %28 = load ptr, ptr %6, align 8, !tbaa !143
  %29 = getelementptr inbounds nuw %struct.Gia_ParLlb_t_, ptr %28, i32 0, i32 2
  store i32 500, ptr %29, align 8, !tbaa !145
  %30 = load ptr, ptr %2, align 8, !tbaa !8
  %31 = load ptr, ptr %6, align 8, !tbaa !143
  %32 = call ptr @Llb_MnxStart(ptr noundef %30, ptr noundef %31)
  store ptr %32, ptr %9, align 8, !tbaa !100
  %33 = load ptr, ptr %9, align 8, !tbaa !100
  %34 = call i32 @Llb_Nonlin4Reachability(ptr noundef %33)
  store i32 %34, ptr %14, align 4, !tbaa !13
  %35 = load ptr, ptr %9, align 8, !tbaa !100
  %36 = getelementptr inbounds nuw %struct.Llb_Mnx_t_, ptr %35, i32 0, i32 2
  %37 = load ptr, ptr %36, align 8, !tbaa !102
  %38 = call i32 @Cudd_ReadSize(ptr noundef %37)
  %39 = call ptr @Vec_IntStartFull(i32 noundef %38)
  store ptr %39, ptr %3, align 8, !tbaa !10
  store i32 0, ptr %13, align 4, !tbaa !13
  br label %40

40:                                               ; preds = %64, %1
  %41 = load i32, ptr %13, align 4, !tbaa !13
  %42 = load ptr, ptr %2, align 8, !tbaa !8
  %43 = call i32 @Saig_ManRegNum(ptr noundef %42)
  %44 = icmp slt i32 %41, %43
  br i1 %44, label %45, label %54

45:                                               ; preds = %40
  %46 = load ptr, ptr %2, align 8, !tbaa !8
  %47 = getelementptr inbounds nuw %struct.Aig_Man_t_, ptr %46, i32 0, i32 2
  %48 = load ptr, ptr %47, align 8, !tbaa !15
  %49 = load i32, ptr %13, align 4, !tbaa !13
  %50 = load ptr, ptr %2, align 8, !tbaa !8
  %51 = call i32 @Saig_ManPiNum(ptr noundef %50)
  %52 = add nsw i32 %49, %51
  %53 = call ptr @Vec_PtrEntry(ptr noundef %48, i32 noundef %52)
  store ptr %53, ptr %12, align 8, !tbaa !27
  br label %54

54:                                               ; preds = %45, %40
  %55 = phi i1 [ false, %40 ], [ true, %45 ]
  br i1 %55, label %56, label %67

56:                                               ; preds = %54
  %57 = load ptr, ptr %3, align 8, !tbaa !10
  %58 = load ptr, ptr %9, align 8, !tbaa !100
  %59 = getelementptr inbounds nuw %struct.Llb_Mnx_t_, ptr %58, i32 0, i32 9
  %60 = load ptr, ptr %59, align 8, !tbaa !108
  %61 = load ptr, ptr %12, align 8, !tbaa !27
  %62 = call i32 @Llb_ObjBddVar(ptr noundef %60, ptr noundef %61)
  %63 = load i32, ptr %13, align 4, !tbaa !13
  call void @Vec_IntWriteEntry(ptr noundef %57, i32 noundef %62, i32 noundef %63)
  br label %64

64:                                               ; preds = %56
  %65 = load i32, ptr %13, align 4, !tbaa !13
  %66 = add nsw i32 %65, 1
  store i32 %66, ptr %13, align 4, !tbaa !13
  br label %40, !llvm.loop !156

67:                                               ; preds = %54
  %68 = load ptr, ptr %2, align 8, !tbaa !8
  %69 = call i32 @Saig_ManRegNum(ptr noundef %68)
  %70 = call ptr @Cudd_Init(i32 noundef %69, i32 noundef 0, i32 noundef 256, i32 noundef 262144, i64 noundef 0)
  store ptr %70, ptr %7, align 8, !tbaa !3
  %71 = load ptr, ptr %7, align 8, !tbaa !3
  call void @Cudd_AutodynEnable(ptr noundef %71, i32 noundef 6)
  %72 = load ptr, ptr %9, align 8, !tbaa !100
  %73 = getelementptr inbounds nuw %struct.Llb_Mnx_t_, ptr %72, i32 0, i32 2
  %74 = load ptr, ptr %73, align 8, !tbaa !102
  %75 = load ptr, ptr %7, align 8, !tbaa !3
  %76 = load ptr, ptr %9, align 8, !tbaa !100
  %77 = getelementptr inbounds nuw %struct.Llb_Mnx_t_, ptr %76, i32 0, i32 4
  %78 = load ptr, ptr %77, align 8, !tbaa !125
  %79 = load ptr, ptr %3, align 8, !tbaa !10
  %80 = call ptr @Vec_IntArray(ptr noundef %79)
  %81 = call ptr @Extra_TransferPermute(ptr noundef %74, ptr noundef %75, ptr noundef %78, ptr noundef %80)
  store ptr %81, ptr %8, align 8, !tbaa !32
  %82 = load ptr, ptr %8, align 8, !tbaa !32
  call void @Cudd_Ref(ptr noundef %82)
  %83 = load ptr, ptr %3, align 8, !tbaa !10
  call void @Vec_IntFree(ptr noundef %83)
  %84 = call i64 @Abc_Clock()
  %85 = load i64, ptr %15, align 8, !tbaa !93
  %86 = sub nsw i64 %84, %85
  %87 = load ptr, ptr %9, align 8, !tbaa !100
  %88 = getelementptr inbounds nuw %struct.Llb_Mnx_t_, ptr %87, i32 0, i32 15
  store i64 %86, ptr %88, align 8, !tbaa !149
  %89 = load ptr, ptr %9, align 8, !tbaa !100
  call void @Llb_MnxStop(ptr noundef %89)
  %90 = load ptr, ptr %2, align 8, !tbaa !8
  %91 = call i32 @Saig_ManRegNum(ptr noundef %90)
  %92 = call ptr @Abc_NodeGetFakeNames(i32 noundef %91)
  store ptr %92, ptr %4, align 8, !tbaa !31
  %93 = load ptr, ptr %7, align 8, !tbaa !3
  %94 = load ptr, ptr %8, align 8, !tbaa !32
  %95 = load ptr, ptr %4, align 8, !tbaa !31
  %96 = call ptr @Abc_NtkDeriveFromBdd(ptr noundef %93, ptr noundef %94, ptr noundef @.str.32, ptr noundef %95)
  store ptr %96, ptr %10, align 8, !tbaa !157
  %97 = load ptr, ptr %4, align 8, !tbaa !31
  call void @Abc_NodeFreeNames(ptr noundef %97)
  %98 = load ptr, ptr %7, align 8, !tbaa !3
  %99 = load ptr, ptr %8, align 8, !tbaa !32
  call void @Cudd_RecursiveDeref(ptr noundef %98, ptr noundef %99)
  %100 = load ptr, ptr %7, align 8, !tbaa !3
  call void @Cudd_Quit(ptr noundef %100)
  %101 = load ptr, ptr %10, align 8, !tbaa !157
  %102 = call ptr @Abc_NtkBddToMuxes(ptr noundef %101, i32 noundef 0, i32 noundef 1000000, i32 noundef 0)
  store ptr %102, ptr %11, align 8, !tbaa !157
  %103 = load ptr, ptr %10, align 8, !tbaa !157
  call void @Abc_NtkDelete(ptr noundef %103)
  %104 = load ptr, ptr %11, align 8, !tbaa !157
  %105 = call ptr @Abc_NtkStrash(ptr noundef %104, i32 noundef 0, i32 noundef 1, i32 noundef 0)
  store ptr %105, ptr %10, align 8, !tbaa !157
  %106 = load ptr, ptr %11, align 8, !tbaa !157
  call void @Abc_NtkDelete(ptr noundef %106)
  %107 = load ptr, ptr %10, align 8, !tbaa !157
  %108 = call ptr @Abc_NtkToDar(ptr noundef %107, i32 noundef 0, i32 noundef 0)
  store ptr %108, ptr %2, align 8, !tbaa !8
  %109 = load ptr, ptr %10, align 8, !tbaa !157
  call void @Abc_NtkDelete(ptr noundef %109)
  %110 = load ptr, ptr %2, align 8, !tbaa !8
  call void @llvm.lifetime.end.p0(i64 8, ptr %15) #11
  call void @llvm.lifetime.end.p0(i64 4, ptr %14) #11
  call void @llvm.lifetime.end.p0(i64 4, ptr %13) #11
  call void @llvm.lifetime.end.p0(i64 8, ptr %12) #11
  call void @llvm.lifetime.end.p0(i64 8, ptr %11) #11
  call void @llvm.lifetime.end.p0(i64 8, ptr %10) #11
  call void @llvm.lifetime.end.p0(i64 8, ptr %9) #11
  call void @llvm.lifetime.end.p0(i64 8, ptr %8) #11
  call void @llvm.lifetime.end.p0(i64 8, ptr %7) #11
  call void @llvm.lifetime.end.p0(i64 8, ptr %6) #11
  call void @llvm.lifetime.end.p0(i64 112, ptr %5) #11
  call void @llvm.lifetime.end.p0(i64 8, ptr %4) #11
  call void @llvm.lifetime.end.p0(i64 8, ptr %3) #11
  ret ptr %110
}