; Function Attrs: nounwind uwtable
define ptr @Llb_ReachableStates(ptr noundef %0) local_unnamed_addr #0 {
  %2 = alloca %struct.timespec, align 8
  %3 = alloca %struct.timespec, align 8
  %4 = alloca %struct.Gia_ParLlb_t_, align 8
  call void @llvm.lifetime.start.p0(i64 112, ptr nonnull %4) #18
  call void @llvm.lifetime.start.p0(i64 16, ptr nonnull %3) #18
  %5 = call i32 @clock_gettime(i32 noundef 1, ptr noundef nonnull %3) #18
  %6 = icmp slt i32 %5, 0
  br i1 %6, label %Abc_Clock.exit, label %7

7:                                                ; preds = %1
  %8 = load i64, ptr %3, align 8, !tbaa !101
  %.neg57 = mul i64 %8, -1000000
  %9 = getelementptr inbounds nuw i8, ptr %3, i64 8
  %10 = load i64, ptr %9, align 8, !tbaa !103
  %.neg = sdiv i64 %10, -1000
  %.neg58 = add i64 %.neg, %.neg57
  br label %Abc_Clock.exit

Abc_Clock.exit:                                   ; preds = %1, %7
  %.0.i.neg = phi i64 [ %.neg58, %7 ], [ 1, %1 ]
  call void @llvm.lifetime.end.p0(i64 16, ptr nonnull %3) #18
  call void @Llb_ManSetDefaultParams(ptr noundef nonnull %4) #18
  %11 = getelementptr inbounds nuw i8, ptr %4, i64 80
  store i32 1, ptr %11, align 8, !tbaa !107
  %12 = getelementptr inbounds nuw i8, ptr %4, i64 52
  store i32 0, ptr %12, align 4, !tbaa !108
  %13 = getelementptr inbounds nuw i8, ptr %4, i64 40
  store i32 0, ptr %13, align 8, !tbaa !135
  %14 = getelementptr inbounds nuw i8, ptr %4, i64 72
  store i32 1, ptr %14, align 8, !tbaa !111
  store i32 100, ptr %4, align 8, !tbaa !132
  %15 = getelementptr inbounds nuw i8, ptr %4, i64 8
  store i32 500, ptr %15, align 8, !tbaa !133
  %16 = call ptr @Llb_MnxStart(ptr noundef %0, ptr noundef nonnull %4)
  %17 = call i32 @Llb_Nonlin4Reachability(ptr noundef %16)
  %18 = getelementptr inbounds nuw i8, ptr %16, i64 16
  %19 = load ptr, ptr %18, align 8, !tbaa !88
  %20 = call i32 @Cudd_ReadSize(ptr noundef %19) #18
  %21 = add i32 %20, -1
  %or.cond.i.i = icmp ult i32 %21, 15
  %spec.store.select.i.i = select i1 %or.cond.i.i, i32 16, i32 %20
  %.not.i.i = icmp eq i32 %spec.store.select.i.i, 0
  br i1 %.not.i.i, label %Vec_IntStartFull.exit, label %Vec_IntAlloc.exit.i

Vec_IntAlloc.exit.i:                              ; preds = %Abc_Clock.exit
  %22 = sext i32 %spec.store.select.i.i to i64
  %23 = shl nsw i64 %22, 2
  %24 = call noalias ptr @malloc(i64 noundef %23) #19
  %.not.i = icmp eq ptr %24, null
  br i1 %.not.i, label %Vec_IntStartFull.exit, label %25

25:                                               ; preds = %Vec_IntAlloc.exit.i
  %26 = sext i32 %20 to i64
  %27 = shl nsw i64 %26, 2
  call void @llvm.memset.p0.i64(ptr nonnull align 4 %24, i8 -1, i64 %27, i1 false)
  br label %Vec_IntStartFull.exit

Vec_IntStartFull.exit:                            ; preds = %Abc_Clock.exit, %Vec_IntAlloc.exit.i, %25
  %.val53 = phi ptr [ null, %Vec_IntAlloc.exit.i ], [ %24, %25 ], [ null, %Abc_Clock.exit ]
  %28 = getelementptr i8, ptr %0, i64 104
  %.val5159 = load i32, ptr %28, align 8, !tbaa !45
  %29 = icmp sgt i32 %.val5159, 0
  br i1 %29, label %.lr.ph, label %.critedge

.lr.ph:                                           ; preds = %Vec_IntStartFull.exit
  %30 = getelementptr inbounds nuw i8, ptr %0, i64 16
  %31 = load ptr, ptr %30, align 8, !tbaa !22
  %32 = getelementptr i8, ptr %0, i64 108
  %33 = getelementptr i8, ptr %31, i64 8
  %.val = load ptr, ptr %33, align 8, !tbaa !25
  %34 = getelementptr inbounds nuw i8, ptr %16, i64 72
  %35 = load ptr, ptr %34, align 8, !tbaa !98
  %36 = getelementptr i8, ptr %35, i64 8
  %.val46 = load ptr, ptr %36, align 8, !tbaa !27
  %.val48.pre = load i32, ptr %32, align 4, !tbaa !41
  br label %37

37:                                               ; preds = %.lr.ph, %37
  %.060 = phi i32 [ 0, %.lr.ph ], [ %48, %37 ]
  %38 = add nsw i32 %.val48.pre, %.060
  %39 = sext i32 %38 to i64
  %40 = getelementptr inbounds ptr, ptr %.val, i64 %39
  %41 = load ptr, ptr %40, align 8, !tbaa !26
  %42 = getelementptr i8, ptr %41, i64 36
  %.val47 = load i32, ptr %42, align 4, !tbaa !29
  %43 = sext i32 %.val47 to i64
  %44 = getelementptr inbounds i32, ptr %.val46, i64 %43
  %45 = load i32, ptr %44, align 4, !tbaa !30
  %46 = sext i32 %45 to i64
  %47 = getelementptr inbounds i32, ptr %.val53, i64 %46
  store i32 %.060, ptr %47, align 4, !tbaa !30
  %48 = add nuw nsw i32 %.060, 1
  %49 = icmp slt i32 %48, %.val5159
  br i1 %49, label %37, label %.critedge, !llvm.loop !146

.critedge:                                        ; preds = %37, %Vec_IntStartFull.exit
  %50 = call ptr @Cudd_Init(i32 noundef %.val5159, i32 noundef 0, i32 noundef 256, i32 noundef 262144, i64 noundef 0) #18
  call void @Cudd_AutodynEnable(ptr noundef %50, i32 noundef 6) #18
  %51 = load ptr, ptr %18, align 8, !tbaa !88
  %52 = getelementptr inbounds nuw i8, ptr %16, i64 32
  %53 = load ptr, ptr %52, align 8, !tbaa !114
  %54 = call ptr @Extra_TransferPermute(ptr noundef %51, ptr noundef %50, ptr noundef %53, ptr noundef %.val53) #18
  call void @Cudd_Ref(ptr noundef %54) #18
  %.not.i54 = icmp eq ptr %.val53, null
  br i1 %.not.i54, label %Vec_IntFree.exit, label %55

55:                                               ; preds = %.critedge
  call void @free(ptr noundef nonnull %.val53) #18
  br label %Vec_IntFree.exit

Vec_IntFree.exit:                                 ; preds = %.critedge, %55
  call void @llvm.lifetime.start.p0(i64 16, ptr nonnull %2) #18
  %56 = call i32 @clock_gettime(i32 noundef 1, ptr noundef nonnull %2) #18
  %57 = icmp slt i32 %56, 0
  br i1 %57, label %Abc_Clock.exit56, label %58

58:                                               ; preds = %Vec_IntFree.exit
  %59 = load i64, ptr %2, align 8, !tbaa !101
  %60 = mul nsw i64 %59, 1000000
  %61 = getelementptr inbounds nuw i8, ptr %2, i64 8
  %62 = load i64, ptr %61, align 8, !tbaa !103
  %63 = sdiv i64 %62, 1000
  %64 = add nsw i64 %63, %60
  br label %Abc_Clock.exit56

Abc_Clock.exit56:                                 ; preds = %Vec_IntFree.exit, %58
  %.0.i55 = phi i64 [ %64, %58 ], [ -1, %Vec_IntFree.exit ]
  call void @llvm.lifetime.end.p0(i64 16, ptr nonnull %2) #18
  %65 = add i64 %.0.i55, %.0.i.neg
  %66 = getelementptr inbounds nuw i8, ptr %16, i64 120
  store i64 %65, ptr %66, align 8, !tbaa !137
  call void @Llb_MnxStop(ptr noundef nonnull %16)
  %.val49 = load i32, ptr %28, align 8, !tbaa !45
  %67 = call ptr @Abc_NodeGetFakeNames(i32 noundef %.val49) #18
  %68 = call ptr @Abc_NtkDeriveFromBdd(ptr noundef %50, ptr noundef %54, ptr noundef nonnull @.str.32, ptr noundef %67) #18
  call void @Abc_NodeFreeNames(ptr noundef %67) #18
  call void @Cudd_RecursiveDeref(ptr noundef %50, ptr noundef %54) #18
  call void @Cudd_Quit(ptr noundef %50) #18
  %69 = call ptr @Abc_NtkBddToMuxes(ptr noundef %68, i32 noundef 0, i32 noundef 1000000, i32 noundef 0) #18
  call void @Abc_NtkDelete(ptr noundef %68) #18
  %70 = call ptr @Abc_NtkStrash(ptr noundef %69, i32 noundef 0, i32 noundef 1, i32 noundef 0) #18
  call void @Abc_NtkDelete(ptr noundef %69) #18
  %71 = call ptr @Abc_NtkToDar(ptr noundef %70, i32 noundef 0, i32 noundef 0) #18
  call void @Abc_NtkDelete(ptr noundef %70) #18
  call void @llvm.lifetime.end.p0(i64 112, ptr nonnull %4) #18
  ret ptr %71
}